; Function Attrs: mustprogress nounwind uwtable
define noundef ptr @_ZN8nanobind6detail10module_newEPKcP11PyModuleDef(ptr noundef %0, ptr noundef initializes((0, 104)) %1) local_unnamed_addr #9 personality ptr @__gxx_personality_v0 {
  tail call void @llvm.memset.p0.i64(ptr noundef nonnull align 8 dereferenceable(104) %1, i8 0, i64 104, i1 false)
  %3 = getelementptr inbounds nuw i8, ptr %1, i64 40
  store ptr %0, ptr %3, align 8
  %4 = getelementptr inbounds nuw i8, ptr %1, i64 56
  store i64 -1, ptr %4, align 8
  %5 = invoke ptr @PyModule_Create2(ptr noundef nonnull %1, i32 noundef 1013)
          to label %6 unwind label %9

6:                                                ; preds = %2
  %.not = icmp eq ptr %5, null
  br i1 %.not, label %7, label %8, !prof !3

7:                                                ; preds = %6
  tail call void @_ZN8nanobind6detail16fail_unspecifiedEv() #29
  unreachable

8:                                                ; preds = %6
  ret ptr %5

9:                                                ; preds = %2
  %10 = landingpad { ptr, i32 }
          catch ptr null
  %11 = extractvalue { ptr, i32 } %10, 0
  tail call void @__clang_call_terminate(ptr %11) #29
  unreachable
}